; Function Attrs: nofree nounwind uwtable
define noalias noundef ptr @Gia_GlaConvertToFla(ptr noundef readonly captures(none) %0, ptr noundef readonly captures(none) %1) local_unnamed_addr #2 {
  %3 = getelementptr i8, ptr %0, i64 16
  %.val21 = load i32, ptr %3, align 8, !tbaa !56
  %4 = tail call noalias dereferenceable_or_null(16) ptr @malloc(i64 noundef 16) #11
  %5 = add i32 %.val21, -1
  %or.cond.i.i = icmp ult i32 %5, 15
  %spec.store.select.i.i = select i1 %or.cond.i.i, i32 16, i32 %.val21
  %6 = getelementptr inbounds nuw i8, ptr %4, i64 4
  store i32 %spec.store.select.i.i, ptr %4, align 8, !tbaa !43
  %.not.i.i = icmp eq i32 %spec.store.select.i.i, 0
  br i1 %.not.i.i, label %Vec_IntAlloc.exit.thread.i, label %Vec_IntAlloc.exit.i

Vec_IntAlloc.exit.thread.i:                       ; preds = %2
  %7 = getelementptr inbounds nuw i8, ptr %4, i64 8
  store ptr null, ptr %7, align 8, !tbaa !41
  store i32 %.val21, ptr %6, align 4, !tbaa !44
  br label %Vec_IntStart.exit

Vec_IntAlloc.exit.i:                              ; preds = %2
  %8 = sext i32 %spec.store.select.i.i to i64
  %9 = shl nsw i64 %8, 2
  %10 = tail call noalias ptr @malloc(i64 noundef %9) #11
  %11 = getelementptr inbounds nuw i8, ptr %4, i64 8
  store ptr %10, ptr %11, align 8, !tbaa !41
  store i32 %.val21, ptr %6, align 4, !tbaa !44
  %.not.i = icmp eq ptr %10, null
  br i1 %.not.i, label %Vec_IntStart.exit, label %12

12:                                               ; preds = %Vec_IntAlloc.exit.i
  %13 = sext i32 %.val21 to i64
  %14 = shl nsw i64 %13, 2
  tail call void @llvm.memset.p0.i64(ptr nonnull align 4 %10, i8 0, i64 %14, i1 false)
  br label %Vec_IntStart.exit

Vec_IntStart.exit:                                ; preds = %Vec_IntAlloc.exit.thread.i, %Vec_IntAlloc.exit.i, %12
  %.val14 = phi ptr [ null, %Vec_IntAlloc.exit.thread.i ], [ null, %Vec_IntAlloc.exit.i ], [ %10, %12 ]
  %15 = icmp sgt i32 %.val21, 0
  br i1 %15, label %.lr.ph, label %.critedge

.lr.ph:                                           ; preds = %Vec_IntStart.exit
  %16 = getelementptr i8, ptr %0, i64 32
  %.val18 = load ptr, ptr %16, align 8, !tbaa !54
  %.not = icmp eq ptr %.val18, null
  br i1 %.not, label %.critedge, label %.lr.ph.split

.lr.ph.split:                                     ; preds = %.lr.ph
  %17 = getelementptr i8, ptr %1, i64 8
  %18 = getelementptr i8, ptr %0, i64 64
  %.val17 = load ptr, ptr %18, align 8, !tbaa !57
  %19 = getelementptr i8, ptr %.val17, i64 8
  %.val19.val = load ptr, ptr %19, align 8, !tbaa !41
  %20 = getelementptr i8, ptr %.val17, i64 4
  %.val = load ptr, ptr %17, align 8, !tbaa !41
  %21 = zext nneg i32 %.val21 to i64
  br label %22

22:                                               ; preds = %.lr.ph.split, %34
  %indvars.iv = phi i64 [ 0, %.lr.ph.split ], [ %indvars.iv.next, %34 ]
  %.val17.val = load i32, ptr %20, align 4, !tbaa !44
  %23 = trunc nuw nsw i64 %indvars.iv to i32
  %24 = sub i32 %23, %.val21
  %25 = add i32 %24, %.val17.val
  %26 = sext i32 %25 to i64
  %27 = getelementptr inbounds i32, ptr %.val19.val, i64 %26
  %28 = load i32, ptr %27, align 4, !tbaa !42
  %29 = sext i32 %28 to i64
  %30 = getelementptr inbounds i32, ptr %.val, i64 %29
  %31 = load i32, ptr %30, align 4, !tbaa !42
  %.not13 = icmp eq i32 %31, 0
  br i1 %.not13, label %34, label %32

32:                                               ; preds = %22
  %33 = getelementptr inbounds nuw i32, ptr %.val14, i64 %indvars.iv
  store i32 1, ptr %33, align 4, !tbaa !42
  br label %34

34:                                               ; preds = %22, %32
  %indvars.iv.next = add nuw nsw i64 %indvars.iv, 1
  %35 = icmp samesign ult i64 %indvars.iv.next, %21
  br i1 %35, label %22, label %.critedge, !llvm.loop !63

.critedge:                                        ; preds = %34, %.lr.ph, %Vec_IntStart.exit
  ret ptr %4
}